target datalayout = "e-m:e-p270:32:32-p271:32:32-p272:64:64-i64:64-i128:128-f80:128-n8:16:32:64-S128"
target triple = "x86_64-pc-linux-gnu"

%struct.SurfaceDataRasInfo = type { %struct.SurfaceDataBounds, ptr, i32, i32, i32, i32, ptr, ptr, ptr, ptr, ptr, ptr, i32, %union.anon.0 }
%struct.SurfaceDataBounds = type { i32, i32, i32, i32 }
%union.anon.0 = type { ptr, [56 x i8] }

; Function Attrs: nounwind uwtable
define hidden void @ByteIndexedToIntBgrScaleConvert(ptr noundef %0, ptr noundef %1, i32 noundef %2, i32 noundef %3, i32 noundef %4, i32 noundef %5, i32 noundef %6, i32 noundef %7, i32 noundef %8, ptr noundef %9, ptr noundef %10, ptr noundef %11, ptr noundef %12) #1 {
  %14 = alloca ptr, align 8
  %15 = alloca ptr, align 8
  %16 = alloca i32, align 4
  %17 = alloca i32, align 4
  %18 = alloca i32, align 4
  %19 = alloca i32, align 4
  %20 = alloca i32, align 4
  %21 = alloca i32, align 4
  %22 = alloca i32, align 4
  %23 = alloca ptr, align 8
  %24 = alloca ptr, align 8
  %25 = alloca ptr, align 8
  %26 = alloca ptr, align 8
  %27 = alloca [256 x i32], align 16
  %28 = alloca ptr, align 8
  %29 = alloca i32, align 4
  %30 = alloca ptr, align 8
  %31 = alloca i32, align 4
  %32 = alloca i32, align 4
  %33 = alloca ptr, align 8
  %34 = alloca ptr, align 8
  %35 = alloca i32, align 4
  %36 = alloca i32, align 4
  %37 = alloca i32, align 4
  %38 = alloca i32, align 4
  %39 = alloca i32, align 4
  store ptr %0, ptr %14, align 8
  store ptr %1, ptr %15, align 8
  store i32 %2, ptr %16, align 4
  store i32 %3, ptr %17, align 4
  store i32 %4, ptr %18, align 4
  store i32 %5, ptr %19, align 4
  store i32 %6, ptr %20, align 4
  store i32 %7, ptr %21, align 4
  store i32 %8, ptr %22, align 4
  store ptr %9, ptr %23, align 8
  store ptr %10, ptr %24, align 8
  store ptr %11, ptr %25, align 8
  store ptr %12, ptr %26, align 8
  br label %40

40:                                               ; preds = %13
  %41 = load ptr, ptr %23, align 8
  %42 = getelementptr inbounds %struct.SurfaceDataRasInfo, ptr %41, i32 0, i32 6
  %43 = load ptr, ptr %42, align 8
  store ptr %43, ptr %28, align 8
  %44 = load ptr, ptr %23, align 8
  %45 = getelementptr inbounds %struct.SurfaceDataRasInfo, ptr %44, i32 0, i32 5
  %46 = load i32, ptr %45, align 4
  store i32 %46, ptr %29, align 4
  %47 = load i32, ptr %29, align 4
  %48 = icmp uge i32 %47, 256
  br i1 %48, label %49, label %50

49:                                               ; preds = %40
  store i32 256, ptr %29, align 4
  br label %63

50:                                               ; preds = %40
  %51 = load i32, ptr %29, align 4
  %52 = zext i32 %51 to i64
  %53 = getelementptr inbounds [256 x i32], ptr %27, i64 0, i64 %52
  store ptr %53, ptr %30, align 8
  br label %54

54:                                               ; preds = %57, %50
  %55 = load ptr, ptr %30, align 8
  %56 = getelementptr inbounds i32, ptr %55, i64 0
  store i32 0, ptr %56, align 4
  br label %57

57:                                               ; preds = %54
  %58 = load ptr, ptr %30, align 8
  %59 = getelementptr inbounds i32, ptr %58, i32 1
  store ptr %59, ptr %30, align 8
  %60 = getelementptr inbounds [256 x i32], ptr %27, i64 0, i64 256
  %61 = icmp ult ptr %59, %60
  br i1 %61, label %54, label %62, !llvm.loop !23

62:                                               ; preds = %57
  br label %63

63:                                               ; preds = %62, %49
  br label %64

64:                                               ; preds = %63
  store i32 0, ptr %31, align 4
  br label %65

65:                                               ; preds = %85, %64
  br label %66

66:                                               ; preds = %65
  %67 = load ptr, ptr %28, align 8
  %68 = load i32, ptr %31, align 4
  %69 = zext i32 %68 to i64
  %70 = getelementptr inbounds i32, ptr %67, i64 %69
  %71 = load i32, ptr %70, align 4
  store i32 %71, ptr %32, align 4
  %72 = load i32, ptr %32, align 4
  %73 = shl i32 %72, 16
  %74 = load i32, ptr %32, align 4
  %75 = and i32 %74, 65280
  %76 = or i32 %73, %75
  %77 = load i32, ptr %32, align 4
  %78 = ashr i32 %77, 16
  %79 = and i32 %78, 255
  %80 = or i32 %76, %79
  %81 = load i32, ptr %31, align 4
  %82 = zext i32 %81 to i64
  %83 = getelementptr inbounds [256 x i32], ptr %27, i64 0, i64 %82
  store i32 %80, ptr %83, align 4
  br label %84

84:                                               ; preds = %66
  br label %85

85:                                               ; preds = %84
  %86 = load i32, ptr %31, align 4
  %87 = add i32 %86, 1
  store i32 %87, ptr %31, align 4
  %88 = load i32, ptr %29, align 4
  %89 = icmp ult i32 %87, %88
  br i1 %89, label %65, label %90, !llvm.loop !24

90:                                               ; preds = %85
  br label %91

91:                                               ; preds = %90
  br label %92

92:                                               ; preds = %91
  br label %93

93:                                               ; preds = %92
  %94 = load ptr, ptr %15, align 8
  store ptr %94, ptr %34, align 8
  %95 = load ptr, ptr %23, align 8
  %96 = getelementptr inbounds %struct.SurfaceDataRasInfo, ptr %95, i32 0, i32 4
  %97 = load i32, ptr %96, align 8
  store i32 %97, ptr %35, align 4
  %98 = load ptr, ptr %24, align 8
  %99 = getelementptr inbounds %struct.SurfaceDataRasInfo, ptr %98, i32 0, i32 4
  %100 = load i32, ptr %99, align 8
  store i32 %100, ptr %36, align 4
  %101 = load i32, ptr %16, align 4
  %102 = mul i32 %101, 4
  %103 = load i32, ptr %36, align 4
  %104 = sub i32 %103, %102
  store i32 %104, ptr %36, align 4
  br label %105

105:                                              ; preds = %154, %93
  %106 = load i32, ptr %16, align 4
  store i32 %106, ptr %37, align 4
  %107 = load i32, ptr %18, align 4
  store i32 %107, ptr %38, align 4
  %108 = load ptr, ptr %14, align 8
  %109 = ptrtoint ptr %108 to i64
  %110 = load i32, ptr %19, align 4
  %111 = load i32, ptr %22, align 4
  %112 = ashr i32 %110, %111
  %113 = sext i32 %112 to i64
  %114 = load i32, ptr %35, align 4
  %115 = sext i32 %114 to i64
  %116 = mul nsw i64 %113, %115
  %117 = add nsw i64 %109, %116
  %118 = inttoptr i64 %117 to ptr
  store ptr %118, ptr %33, align 8
  br label %119

119:                                              ; preds = %140, %105
  %120 = load i32, ptr %38, align 4
  %121 = load i32, ptr %22, align 4
  %122 = ashr i32 %120, %121
  store i32 %122, ptr %39, align 4
  %123 = load ptr, ptr %33, align 8
  %124 = load i32, ptr %39, align 4
  %125 = sext i32 %124 to i64
  %126 = getelementptr inbounds i8, ptr %123, i64 %125
  %127 = load i8, ptr %126, align 1
  %128 = zext i8 %127 to i64
  %129 = getelementptr inbounds [256 x i32], ptr %27, i64 0, i64 %128
  %130 = load i32, ptr %129, align 4
  %131 = load ptr, ptr %34, align 8
  %132 = getelementptr inbounds i32, ptr %131, i64 0
  store i32 %130, ptr %132, align 4
  %133 = load ptr, ptr %34, align 8
  %134 = ptrtoint ptr %133 to i64
  %135 = add nsw i64 %134, 4
  %136 = inttoptr i64 %135 to ptr
  store ptr %136, ptr %34, align 8
  %137 = load i32, ptr %20, align 4
  %138 = load i32, ptr %38, align 4
  %139 = add nsw i32 %138, %137
  store i32 %139, ptr %38, align 4
  br label %140

140:                                              ; preds = %119
  %141 = load i32, ptr %37, align 4
  %142 = add i32 %141, -1
  store i32 %142, ptr %37, align 4
  %143 = icmp ugt i32 %142, 0
  br i1 %143, label %119, label %144, !llvm.loop !25

144:                                              ; preds = %140
  %145 = load ptr, ptr %34, align 8
  %146 = ptrtoint ptr %145 to i64
  %147 = load i32, ptr %36, align 4
  %148 = sext i32 %147 to i64
  %149 = add nsw i64 %146, %148
  %150 = inttoptr i64 %149 to ptr
  store ptr %150, ptr %34, align 8
  %151 = load i32, ptr %21, align 4
  %152 = load i32, ptr %19, align 4
  %153 = add nsw i32 %152, %151
  store i32 %153, ptr %19, align 4
  br label %154

154:                                              ; preds = %144
  %155 = load i32, ptr %17, align 4
  %156 = add i32 %155, -1
  store i32 %156, ptr %17, align 4
  %157 = icmp ugt i32 %156, 0
  br i1 %157, label %105, label %158, !llvm.loop !26

158:                                              ; preds = %154
  br label %159

159:                                              ; preds = %158
  ret void
}