; Function Attrs: nofree norecurse nosync nounwind memory(readwrite, inaccessiblemem: none) uwtable
define hidden void @ByteIndexedToIntBgrScaleConvert(ptr noundef %0, ptr noundef %1, i32 noundef %2, i32 noundef %3, i32 noundef %4, i32 noundef %5, i32 noundef %6, i32 noundef %7, i32 noundef %8, ptr nocapture noundef readonly %9, ptr nocapture noundef readonly %10, ptr nocapture readnone %11, ptr nocapture readnone %12) #1 {
  %14 = alloca [256 x i32], align 16
  %15 = getelementptr inbounds i8, ptr %9, i64 40
  %16 = load ptr, ptr %15, align 8
  %17 = getelementptr inbounds i8, ptr %9, i64 36
  %18 = load i32, ptr %17, align 4
  %19 = icmp ugt i32 %18, 255
  br i1 %19, label %.loopexit, label %.loopexit.loopexit

.loopexit.loopexit:                               ; preds = %13
  %20 = shl nuw nsw i32 %18, 2
  %.idx = zext nneg i32 %20 to i64
  %scevgep = getelementptr i8, ptr %14, i64 %.idx
  %21 = sub nuw nsw i64 1024, %.idx
  call void @llvm.memset.p0.i64(ptr align 4 %scevgep, i8 0, i64 %21, i1 false)
  br label %.loopexit

.loopexit:                                        ; preds = %.loopexit.loopexit, %13
  %.042 = phi i32 [ 256, %13 ], [ %18, %.loopexit.loopexit ]
  %umax = tail call i32 @llvm.umax.i32(i32 %.042, i32 1)
  %wide.trip.count = zext nneg i32 %umax to i64
  br label %22

22:                                               ; preds = %22, %.loopexit
  %indvars.iv = phi i64 [ %indvars.iv.next, %22 ], [ 0, %.loopexit ]
  %23 = getelementptr inbounds i32, ptr %16, i64 %indvars.iv
  %24 = load i32, ptr %23, align 4
  %25 = shl i32 %24, 16
  %26 = and i32 %24, 65280
  %27 = or disjoint i32 %25, %26
  %28 = lshr i32 %24, 16
  %29 = and i32 %28, 255
  %30 = or disjoint i32 %27, %29
  %31 = getelementptr inbounds [256 x i32], ptr %14, i64 0, i64 %indvars.iv
  store i32 %30, ptr %31, align 4
  %indvars.iv.next = add nuw nsw i64 %indvars.iv, 1
  %exitcond.not = icmp eq i64 %indvars.iv.next, %wide.trip.count
  br i1 %exitcond.not, label %32, label %22, !llvm.loop !22

32:                                               ; preds = %22
  %33 = getelementptr inbounds i8, ptr %9, i64 32
  %34 = load i32, ptr %33, align 8
  %35 = getelementptr inbounds i8, ptr %10, i64 32
  %36 = load i32, ptr %35, align 8
  %37 = shl i32 %2, 2
  %38 = sub i32 %36, %37
  %39 = sext i32 %38 to i64
  %40 = ptrtoint ptr %0 to i64
  %41 = sext i32 %34 to i64
  br label %42

42:                                               ; preds = %61, %32
  %.041 = phi ptr [ %1, %32 ], [ %63, %61 ]
  %.040 = phi i32 [ %5, %32 ], [ %64, %61 ]
  %.0 = phi i32 [ %3, %32 ], [ %65, %61 ]
  %43 = ashr i32 %.040, %8
  %44 = sext i32 %43 to i64
  %45 = mul nsw i64 %44, %41
  %46 = add nsw i64 %45, %40
  %47 = inttoptr i64 %46 to ptr
  br label %48

48:                                               ; preds = %48, %42
  %.1 = phi ptr [ %.041, %42 ], [ %58, %48 ]
  %.039 = phi i32 [ %2, %42 ], [ %60, %48 ]
  %.038 = phi i32 [ %4, %42 ], [ %59, %48 ]
  %49 = ashr i32 %.038, %8
  %50 = sext i32 %49 to i64
  %51 = getelementptr inbounds i8, ptr %47, i64 %50
  %52 = load i8, ptr %51, align 1
  %53 = zext i8 %52 to i64
  %54 = getelementptr inbounds [256 x i32], ptr %14, i64 0, i64 %53
  %55 = load i32, ptr %54, align 4
  store i32 %55, ptr %.1, align 4
  %56 = ptrtoint ptr %.1 to i64
  %57 = add nsw i64 %56, 4
  %58 = inttoptr i64 %57 to ptr
  %59 = add nsw i32 %.038, %6
  %60 = add i32 %.039, -1
  %.not = icmp eq i32 %60, 0
  br i1 %.not, label %61, label %48, !llvm.loop !23

61:                                               ; preds = %48
  %62 = add nsw i64 %57, %39
  %63 = inttoptr i64 %62 to ptr
  %64 = add nsw i32 %.040, %7
  %65 = add i32 %.0, -1
  %.not48 = icmp eq i32 %65, 0
  br i1 %.not48, label %66, label %42, !llvm.loop !24

66:                                               ; preds = %61
  ret void
}